target datalayout = "e-m:e-p270:32:32-p271:32:32-p272:64:64-i64:64-i128:128-f80:128-n8:16:32:64-S128"
target triple = "x86_64-pc-linux-gnu"

%struct.AVIOInterruptCB = type { ptr, ptr }
%struct.URLContext = type { ptr, ptr, ptr, ptr, i32, i32, i32, i32, %struct.AVIOInterruptCB, i64, ptr, ptr, i32 }
%struct.AsyncContext = type { ptr, ptr, i32, i64, i32, i32, i64, i32, i32, i32, i64, i64, %struct.RingBuffer, %union.pthread_cond_t, %union.pthread_cond_t, %union.pthread_mutex_t, i64, i32, %struct.AVIOInterruptCB }
%struct.RingBuffer = type { ptr, i32, i32 }
%union.pthread_cond_t = type { %struct.__pthread_cond_s }
%struct.__pthread_cond_s = type { %union.__atomic_wide_counter, %union.__atomic_wide_counter, [2 x i32], [2 x i32], i32, i32, [2 x i32] }
%union.__atomic_wide_counter = type { i64 }
%union.pthread_mutex_t = type { %struct.__pthread_mutex_s }
%struct.__pthread_mutex_s = type { i32, i32, i32, i32, i32, i16, i16, %struct.__pthread_internal_list }
%struct.__pthread_internal_list = type { ptr, ptr }

; Function Attrs: inlinehint nounwind uwtable
define internal i32 @ffurl_read(ptr noundef %0, ptr noundef %1, i32 noundef %2) #4 {
  %4 = alloca ptr, align 8
  %5 = alloca ptr, align 8
  %6 = alloca i32, align 4
  store ptr %0, ptr %4, align 8, !tbaa !4
  store ptr %1, ptr %5, align 8, !tbaa !9
  store i32 %2, ptr %6, align 4, !tbaa !11
  %7 = load ptr, ptr %4, align 8, !tbaa !4
  %8 = load ptr, ptr %5, align 8, !tbaa !9
  %9 = load i32, ptr %6, align 4, !tbaa !11
  %10 = call i32 @ffurl_read2(ptr noundef %7, ptr noundef %8, i32 noundef %9)
  ret i32 %10
}

; Function Attrs: nounwind uwtable
define internal i32 @wrapped_url_read(ptr noundef %0, ptr noundef %1, ptr noundef %2) #0 {
  %4 = alloca ptr, align 8
  %5 = alloca ptr, align 8
  %6 = alloca ptr, align 8
  %7 = alloca ptr, align 8
  %8 = alloca ptr, align 8
  %9 = alloca i32, align 4
  store ptr %0, ptr %4, align 8, !tbaa !27
  store ptr %1, ptr %5, align 8, !tbaa !27
  store ptr %2, ptr %6, align 8, !tbaa !53
  call void @llvm.lifetime.start.p0(i64 8, ptr %7) #7
  %10 = load ptr, ptr %4, align 8, !tbaa !27
  store ptr %10, ptr %7, align 8, !tbaa !4
  call void @llvm.lifetime.start.p0(i64 8, ptr %8) #7
  %11 = load ptr, ptr %7, align 8, !tbaa !4
  %12 = getelementptr inbounds nuw %struct.URLContext, ptr %11, i32 0, i32 2
  %13 = load ptr, ptr %12, align 8, !tbaa !16
  store ptr %13, ptr %8, align 8, !tbaa !22
  call void @llvm.lifetime.start.p0(i64 4, ptr %9) #7
  %14 = load ptr, ptr %8, align 8, !tbaa !22
  %15 = getelementptr inbounds nuw %struct.AsyncContext, ptr %14, i32 0, i32 1
  %16 = load ptr, ptr %15, align 8, !tbaa !30
  %17 = load ptr, ptr %5, align 8, !tbaa !27
  %18 = load ptr, ptr %6, align 8, !tbaa !53
  %19 = load i64, ptr %18, align 8, !tbaa !36
  %20 = trunc i64 %19 to i32
  %21 = call i32 @ffurl_read(ptr noundef %16, ptr noundef %17, i32 noundef %20)
  store i32 %21, ptr %9, align 4, !tbaa !11
  %22 = load i32, ptr %9, align 4, !tbaa !11
  %23 = icmp sgt i32 %22, 0
  br i1 %23, label %24, label %26

24:                                               ; preds = %3
  %25 = load i32, ptr %9, align 4, !tbaa !11
  br label %27

26:                                               ; preds = %3
  br label %27

27:                                               ; preds = %26, %24
  %28 = phi i32 [ %25, %24 ], [ 0, %26 ]
  %29 = sext i32 %28 to i64
  %30 = load ptr, ptr %6, align 8, !tbaa !53
  store i64 %29, ptr %30, align 8, !tbaa !36
  %31 = load i32, ptr %9, align 4, !tbaa !11
  %32 = icmp slt i32 %31, 0
  br i1 %32, label %33, label %35

33:                                               ; preds = %27
  %34 = load i32, ptr %9, align 4, !tbaa !11
  br label %36

35:                                               ; preds = %27
  br label %36

36:                                               ; preds = %35, %33
  %37 = phi i32 [ %34, %33 ], [ 0, %35 ]
  %38 = load ptr, ptr %8, align 8, !tbaa !22
  %39 = getelementptr inbounds nuw %struct.AsyncContext, ptr %38, i32 0, i32 7
  store i32 %37, ptr %39, align 8, !tbaa !51
  %40 = load ptr, ptr %8, align 8, !tbaa !22
  %41 = getelementptr inbounds nuw %struct.AsyncContext, ptr %40, i32 0, i32 7
  %42 = load i32, ptr %41, align 8, !tbaa !51
  call void @llvm.lifetime.end.p0(i64 4, ptr %9) #7
  call void @llvm.lifetime.end.p0(i64 8, ptr %8) #7
  call void @llvm.lifetime.end.p0(i64 8, ptr %7) #7
  ret i32 %42
}