; Function Attrs: nounwind uwtable
define internal range(i32 -2147483648, 1) i32 @wrapped_url_read(ptr noundef readonly captures(none) %0, ptr noundef %1, ptr noundef captures(none) %2) #0 {
  %4 = getelementptr inbounds nuw i8, ptr %0, i64 16
  %5 = load ptr, ptr %4, align 8, !tbaa !9
  %6 = getelementptr inbounds nuw i8, ptr %5, i64 8
  %7 = load ptr, ptr %6, align 8, !tbaa !26
  %8 = load i64, ptr %2, align 8, !tbaa !42
  %9 = trunc i64 %8 to i32
  %10 = tail call i32 @ffurl_read2(ptr noundef %7, ptr noundef %1, i32 noundef %9) #7
  %11 = tail call i32 @llvm.smax.i32(i32 %10, i32 0)
  %12 = zext nneg i32 %11 to i64
  store i64 %12, ptr %2, align 8, !tbaa !42
  %13 = tail call i32 @llvm.smin.i32(i32 %10, i32 0)
  %14 = getelementptr inbounds nuw i8, ptr %5, i64 48
  store i32 %13, ptr %14, align 8, !tbaa !43
  ret i32 %13
}